; Function Attrs: mustprogress nounwind uwtable
define internal fastcc void @_ZN4llvm26ImutAVLTreeInOrderIteratorINS_17ImutContainerInfoIN12_GLOBAL__N_116EquivalenceClassEEEEC2EPKNS_11ImutAVLTreeIS4_EE(ptr noundef nonnull align 8 dereferenceable(176) %0, ptr noundef %1) unnamed_addr #1 align 2 {
  %3 = getelementptr inbounds i8, ptr %0, i64 16
  tail call void @_ZN4llvm15SmallVectorBaseIjEC2EPvm(ptr noundef nonnull align 8 dereferenceable(16) %0, ptr noundef nonnull %3, i64 noundef 20) #22
  %.not.i = icmp eq ptr %1, null
  br i1 %.not.i, label %_ZN4llvm26ImutAVLTreeInOrderIteratorINS_17ImutContainerInfoIN12_GLOBAL__N_116EquivalenceClassEEEEppEv.exit, label %4

4:                                                ; preds = %2
  %5 = ptrtoint ptr %1 to i64
  %6 = tail call noundef i64 @_ZNK4llvm15SmallVectorBaseIjE4sizeEv(ptr noundef nonnull align 8 dereferenceable(16) %0) #22
  %7 = add i64 %6, 1
  %8 = tail call noundef i64 @_ZNK4llvm15SmallVectorBaseIjE8capacityEv(ptr noundef nonnull align 8 dereferenceable(16) %0) #22
  %.not.i.i.i.i = icmp ugt i64 %7, %8
  br i1 %.not.i.i.i.i, label %9, label %10

9:                                                ; preds = %4
  tail call void @_ZN4llvm15SmallVectorBaseIjE8grow_podEPvmm(ptr noundef nonnull align 8 dereferenceable(16) %0, ptr noundef nonnull %3, i64 noundef %7, i64 noundef 8) #22
  br label %10

10:                                               ; preds = %9, %4
  %11 = load ptr, ptr %0, align 8
  %12 = tail call noundef i64 @_ZNK4llvm15SmallVectorBaseIjE4sizeEv(ptr noundef nonnull align 8 dereferenceable(16) %0) #22
  %13 = getelementptr inbounds i64, ptr %11, i64 %12
  store i64 %5, ptr %13, align 1
  %14 = tail call noundef i64 @_ZNK4llvm15SmallVectorBaseIjE4sizeEv(ptr noundef nonnull align 8 dereferenceable(16) %0) #22
  %15 = add i64 %14, 1
  tail call void @_ZN4llvm15SmallVectorBaseIjE8set_sizeEm(ptr noundef nonnull align 8 dereferenceable(16) %0, i64 noundef %15) #22
  br label %16

16:                                               ; preds = %19, %10
  %17 = tail call fastcc noundef nonnull align 8 dereferenceable(176) ptr @_ZN4llvm26ImutAVLTreeGenericIteratorINS_17ImutContainerInfoIN12_GLOBAL__N_116EquivalenceClassEEEEppEv(ptr noundef nonnull align 8 dereferenceable(176) %0)
  %18 = tail call noundef zeroext i1 @_ZNK4llvm15SmallVectorBaseIjE5emptyEv(ptr noundef nonnull align 8 dereferenceable(16) %0) #22
  br i1 %18, label %_ZN4llvm26ImutAVLTreeInOrderIteratorINS_17ImutContainerInfoIN12_GLOBAL__N_116EquivalenceClassEEEEppEv.exit, label %19

19:                                               ; preds = %16
  %20 = load ptr, ptr %0, align 8
  %21 = tail call noundef i64 @_ZNK4llvm15SmallVectorBaseIjE4sizeEv(ptr noundef nonnull align 8 dereferenceable(16) %0) #22
  %22 = getelementptr inbounds i64, ptr %20, i64 %21
  %23 = getelementptr inbounds i8, ptr %22, i64 -8
  %24 = load i64, ptr %23, align 8
  %25 = and i64 %24, 3
  %.not.i3 = icmp eq i64 %25, 1
  br i1 %.not.i3, label %_ZN4llvm26ImutAVLTreeInOrderIteratorINS_17ImutContainerInfoIN12_GLOBAL__N_116EquivalenceClassEEEEppEv.exit, label %16, !llvm.loop !582

_ZN4llvm26ImutAVLTreeInOrderIteratorINS_17ImutContainerInfoIN12_GLOBAL__N_116EquivalenceClassEEEEppEv.exit: ; preds = %19, %16, %2
  ret void
}